target datalayout = "e-m:e-p270:32:32-p271:32:32-p272:64:64-i64:64-i128:128-f80:128-n8:16:32:64-S128"
target triple = "x86_64-pc-linux-gnu"

@.str.279 = private unnamed_addr constant [32 x i8] c"Heuristics.Exploit.W32.MS05-002\00", align 1

; Function Attrs: nounwind uwtable
define internal i32 @cli_scanriff(ptr noundef %0) #0 {
  %2 = alloca ptr, align 8
  %3 = alloca i32, align 4
  store ptr %0, ptr %2, align 8
  store i32 0, ptr %3, align 4
  %4 = load ptr, ptr %2, align 8
  %5 = call i32 @cli_check_riff_exploit(ptr noundef %4)
  %6 = icmp eq i32 %5, 2
  br i1 %6, label %7, label %10

7:                                                ; preds = %1
  %8 = load ptr, ptr %2, align 8
  %9 = call i32 @cli_append_potentially_unwanted(ptr noundef %8, ptr noundef @.str.279)
  store i32 %9, ptr %3, align 4
  br label %10

10:                                               ; preds = %7, %1
  %11 = load i32, ptr %3, align 4
  ret i32 %11
}