; Function Attrs: nounwind uwtable
define internal fastcc i32 @cli_scanriff(ptr noundef %0) unnamed_addr #0 {
  %2 = tail call i32 @cli_check_riff_exploit(ptr noundef %0) #16
  %3 = icmp eq i32 %2, 2
  br i1 %3, label %4, label %6

4:                                                ; preds = %1
  %5 = tail call i32 @cli_append_potentially_unwanted(ptr noundef %0, ptr noundef nonnull @.str.279) #16
  br label %6

6:                                                ; preds = %4, %1
  %.0 = phi i32 [ %5, %4 ], [ 0, %1 ]
  ret i32 %.0
}